target datalayout = "e-m:e-p270:32:32-p271:32:32-p272:64:64-i64:64-i128:128-f80:128-n8:16:32:64-S128"
target triple = "x86_64-pc-linux-gnu"

%struct.IMapEntry_s = type { %struct.dtlink_s_, %struct.dtlink_s_, i64, ptr }
%struct.dtlink_s_ = type { ptr, %union.anon }
%union.anon = type { ptr }
%struct.Agraph_s = type { %struct.Agobj_s, %struct.Agdesc_s, %struct.dtlink_s_, %struct.dtlink_s_, ptr, ptr, ptr, ptr, ptr, ptr, ptr, ptr, ptr }
%struct.Agobj_s = type { %struct.Agtag_s, ptr }
%struct.Agtag_s = type { i32, i64 }
%struct.Agdesc_s = type { i8, [3 x i8] }
%struct.Agclos_s = type { %struct.Agdisc_s, %struct.Agdstate_s, ptr, [3 x i64], ptr, [3 x ptr], [3 x ptr] }
%struct.Agdisc_s = type { ptr, ptr }
%struct.Agdstate_s = type { ptr }
%struct.dt_s_ = type { ptr, ptr, %struct.Dtdata_t, ptr, i32, ptr, ptr, ptr }
%struct.Dtdata_t = type { i32, ptr, %union.anon.0, i32, i32, i32 }
%union.anon.0 = type { ptr }

@Dttree = external global ptr, align 8
@stderr = external global ptr, align 8
@.str = private unnamed_addr constant [58 x i8] c"integer overflow when trying to allocate %zu * %zu bytes\0A\00", align 1
@.str.1 = private unnamed_addr constant [49 x i8] c"out of memory when trying to allocate %zu bytes\0A\00", align 1
@LookupByName = internal global { i32, i32, i32, [4 x i8], ptr, ptr, ptr } { i32 0, i32 0, i32 0, [4 x i8] zeroinitializer, ptr null, ptr null, ptr @namecmpf }, align 8
@LookupById = internal global { i32, i32, i32, [4 x i8], ptr, ptr, ptr } { i32 0, i32 0, i32 16, [4 x i8] zeroinitializer, ptr null, ptr null, ptr @idcmpf }, align 8

; Function Attrs: inlinehint nounwind uwtable
define internal ptr @gv_calloc(i64 noundef %0, i64 noundef %1) #3 {
  %3 = alloca i64, align 8
  %4 = alloca i64, align 8
  %5 = alloca ptr, align 8
  store i64 %0, ptr %3, align 8, !tbaa !36
  store i64 %1, ptr %4, align 8, !tbaa !36
  %6 = load i64, ptr %3, align 8, !tbaa !36
  %7 = icmp ugt i64 %6, 0
  br i1 %7, label %8, label %18

8:                                                ; preds = %2
  %9 = load i64, ptr %3, align 8, !tbaa !36
  %10 = udiv i64 -1, %9
  %11 = load i64, ptr %4, align 8, !tbaa !36
  %12 = icmp ult i64 %10, %11
  br i1 %12, label %13, label %18

13:                                               ; preds = %8
  %14 = load ptr, ptr @stderr, align 8, !tbaa !45
  %15 = load i64, ptr %3, align 8, !tbaa !36
  %16 = load i64, ptr %4, align 8, !tbaa !36
  %17 = call i32 (ptr, ptr, ...) @fprintf(ptr noundef %14, ptr noundef @.str, i64 noundef %15, i64 noundef %16) #8
  call void @graphviz_exit(i32 noundef 1) #9
  unreachable

18:                                               ; preds = %8, %2
  call void @llvm.lifetime.start.p0(i64 8, ptr %5) #8
  %19 = load i64, ptr %3, align 8, !tbaa !36
  %20 = load i64, ptr %4, align 8, !tbaa !36
  %21 = call noalias ptr @calloc(i64 noundef %19, i64 noundef %20) #10
  store ptr %21, ptr %5, align 8, !tbaa !37
  %22 = load i64, ptr %3, align 8, !tbaa !36
  %23 = icmp ugt i64 %22, 0
  br i1 %23, label %24, label %36

24:                                               ; preds = %18
  %25 = load i64, ptr %4, align 8, !tbaa !36
  %26 = icmp ugt i64 %25, 0
  br i1 %26, label %27, label %36

27:                                               ; preds = %24
  %28 = load ptr, ptr %5, align 8, !tbaa !37
  %29 = icmp eq ptr %28, null
  br i1 %29, label %30, label %36

30:                                               ; preds = %27
  %31 = load ptr, ptr @stderr, align 8, !tbaa !45
  %32 = load i64, ptr %3, align 8, !tbaa !36
  %33 = load i64, ptr %4, align 8, !tbaa !36
  %34 = mul i64 %32, %33
  %35 = call i32 (ptr, ptr, ...) @fprintf(ptr noundef %31, ptr noundef @.str.1, i64 noundef %34) #8
  call void @graphviz_exit(i32 noundef 1) #9
  unreachable

36:                                               ; preds = %27, %24, %18
  %37 = load ptr, ptr %5, align 8, !tbaa !37
  call void @llvm.lifetime.end.p0(i64 8, ptr %5) #8
  ret ptr %37
}

; Function Attrs: inlinehint nounwind uwtable
define internal ptr @gv_alloc(i64 noundef %0) #3 {
  %2 = alloca i64, align 8
  store i64 %0, ptr %2, align 8, !tbaa !36
  %3 = load i64, ptr %2, align 8, !tbaa !36
  %4 = call ptr @gv_calloc(i64 noundef 1, i64 noundef %3)
  ret ptr %4
}

; Function Attrs: nounwind uwtable
define void @aginternalmapinsert(ptr noundef %0, i32 noundef %1, ptr noundef %2, i64 noundef %3) #0 {
  %5 = alloca ptr, align 8
  %6 = alloca i32, align 4
  %7 = alloca ptr, align 8
  %8 = alloca i64, align 8
  %9 = alloca ptr, align 8
  %10 = alloca ptr, align 8
  %11 = alloca ptr, align 8
  store ptr %0, ptr %5, align 8, !tbaa !3
  store i32 %1, ptr %6, align 4, !tbaa !8
  store ptr %2, ptr %7, align 8, !tbaa !10
  store i64 %3, ptr %8, align 8, !tbaa !36
  call void @llvm.lifetime.start.p0(i64 8, ptr %9) #8
  call void @llvm.lifetime.start.p0(i64 8, ptr %10) #8
  call void @llvm.lifetime.start.p0(i64 8, ptr %11) #8
  %12 = call ptr @gv_alloc(i64 noundef 48)
  store ptr %12, ptr %11, align 8, !tbaa !33
  %13 = load i64, ptr %8, align 8, !tbaa !36
  %14 = load ptr, ptr %11, align 8, !tbaa !33
  %15 = getelementptr inbounds nuw %struct.IMapEntry_s, ptr %14, i32 0, i32 2
  store i64 %13, ptr %15, align 8, !tbaa !35
  %16 = load ptr, ptr %5, align 8, !tbaa !3
  %17 = load ptr, ptr %7, align 8, !tbaa !10
  %18 = call ptr @agstrdup(ptr noundef %16, ptr noundef %17)
  %19 = load ptr, ptr %11, align 8, !tbaa !33
  %20 = getelementptr inbounds nuw %struct.IMapEntry_s, ptr %19, i32 0, i32 3
  store ptr %18, ptr %20, align 8, !tbaa !27
  %21 = load i32, ptr %6, align 4, !tbaa !8
  %22 = icmp eq i32 %21, 3
  br i1 %22, label %23, label %24

23:                                               ; preds = %4
  store i32 2, ptr %6, align 4, !tbaa !8
  br label %24

24:                                               ; preds = %23, %4
  %25 = load ptr, ptr %5, align 8, !tbaa !3
  %26 = getelementptr inbounds nuw %struct.Agraph_s, ptr %25, i32 0, i32 12
  %27 = load ptr, ptr %26, align 8, !tbaa !14
  %28 = getelementptr inbounds nuw %struct.Agclos_s, ptr %27, i32 0, i32 5
  %29 = load i32, ptr %6, align 4, !tbaa !8
  %30 = sext i32 %29 to i64
  %31 = getelementptr inbounds [3 x ptr], ptr %28, i64 0, i64 %30
  %32 = load ptr, ptr %31, align 8, !tbaa !26
  store ptr %32, ptr %9, align 8, !tbaa !26
  %33 = icmp eq ptr %32, null
  br i1 %33, label %34, label %44

34:                                               ; preds = %24
  %35 = load ptr, ptr @Dttree, align 8, !tbaa !37
  %36 = call ptr @agdtopen(ptr noundef @LookupByName, ptr noundef %35)
  %37 = load ptr, ptr %5, align 8, !tbaa !3
  %38 = getelementptr inbounds nuw %struct.Agraph_s, ptr %37, i32 0, i32 12
  %39 = load ptr, ptr %38, align 8, !tbaa !14
  %40 = getelementptr inbounds nuw %struct.Agclos_s, ptr %39, i32 0, i32 5
  %41 = load i32, ptr %6, align 4, !tbaa !8
  %42 = sext i32 %41 to i64
  %43 = getelementptr inbounds [3 x ptr], ptr %40, i64 0, i64 %42
  store ptr %36, ptr %43, align 8, !tbaa !26
  store ptr %36, ptr %9, align 8, !tbaa !26
  br label %44

44:                                               ; preds = %34, %24
  %45 = load ptr, ptr %5, align 8, !tbaa !3
  %46 = getelementptr inbounds nuw %struct.Agraph_s, ptr %45, i32 0, i32 12
  %47 = load ptr, ptr %46, align 8, !tbaa !14
  %48 = getelementptr inbounds nuw %struct.Agclos_s, ptr %47, i32 0, i32 6
  %49 = load i32, ptr %6, align 4, !tbaa !8
  %50 = sext i32 %49 to i64
  %51 = getelementptr inbounds [3 x ptr], ptr %48, i64 0, i64 %50
  %52 = load ptr, ptr %51, align 8, !tbaa !26
  store ptr %52, ptr %10, align 8, !tbaa !26
  %53 = icmp eq ptr %52, null
  br i1 %53, label %54, label %64

54:                                               ; preds = %44
  %55 = load ptr, ptr @Dttree, align 8, !tbaa !37
  %56 = call ptr @agdtopen(ptr noundef @LookupById, ptr noundef %55)
  %57 = load ptr, ptr %5, align 8, !tbaa !3
  %58 = getelementptr inbounds nuw %struct.Agraph_s, ptr %57, i32 0, i32 12
  %59 = load ptr, ptr %58, align 8, !tbaa !14
  %60 = getelementptr inbounds nuw %struct.Agclos_s, ptr %59, i32 0, i32 6
  %61 = load i32, ptr %6, align 4, !tbaa !8
  %62 = sext i32 %61 to i64
  %63 = getelementptr inbounds [3 x ptr], ptr %60, i64 0, i64 %62
  store ptr %56, ptr %63, align 8, !tbaa !26
  store ptr %56, ptr %10, align 8, !tbaa !26
  br label %64

64:                                               ; preds = %54, %44
  %65 = load ptr, ptr %9, align 8, !tbaa !26
  %66 = getelementptr inbounds nuw %struct.dt_s_, ptr %65, i32 0, i32 0
  %67 = load ptr, ptr %66, align 8, !tbaa !29
  %68 = load ptr, ptr %9, align 8, !tbaa !26
  %69 = load ptr, ptr %11, align 8, !tbaa !33
  %70 = call ptr %67(ptr noundef %68, ptr noundef %69, i32 noundef 1)
  %71 = load ptr, ptr %10, align 8, !tbaa !26
  %72 = getelementptr inbounds nuw %struct.dt_s_, ptr %71, i32 0, i32 0
  %73 = load ptr, ptr %72, align 8, !tbaa !29
  %74 = load ptr, ptr %10, align 8, !tbaa !26
  %75 = load ptr, ptr %11, align 8, !tbaa !33
  %76 = call ptr %73(ptr noundef %74, ptr noundef %75, i32 noundef 1)
  call void @llvm.lifetime.end.p0(i64 8, ptr %11) #8
  call void @llvm.lifetime.end.p0(i64 8, ptr %10) #8
  call void @llvm.lifetime.end.p0(i64 8, ptr %9) #8
  ret void
}