; Function Attrs: nounwind uwtable
define void @aginternalmapinsert(ptr noundef %0, i32 noundef %1, ptr noundef %2, i64 noundef %3) local_unnamed_addr #0 {
  %5 = tail call noalias dereferenceable_or_null(48) ptr @calloc(i64 noundef 1, i64 noundef 48) #11
  %6 = icmp eq ptr %5, null
  br i1 %6, label %7, label %gv_alloc.exit

7:                                                ; preds = %4
  %8 = load ptr, ptr @stderr, align 8, !tbaa !30
  %9 = tail call i32 (ptr, ptr, ...) @fprintf(ptr noundef %8, ptr noundef nonnull @.str.1, i64 noundef 48) #12
  tail call fastcc void @graphviz_exit() #13
  unreachable

gv_alloc.exit:                                    ; preds = %4
  %10 = getelementptr inbounds nuw i8, ptr %5, i64 32
  store i64 %3, ptr %10, align 8, !tbaa !28
  %11 = tail call ptr @agstrdup(ptr noundef %0, ptr noundef %2) #10
  %12 = getelementptr inbounds nuw i8, ptr %5, i64 40
  store ptr %11, ptr %12, align 8, !tbaa !21
  %13 = icmp eq i32 %1, 3
  %spec.store.select = select i1 %13, i32 2, i32 %1
  %14 = getelementptr inbounds nuw i8, ptr %0, i64 128
  %15 = load ptr, ptr %14, align 8, !tbaa !3
  %16 = getelementptr inbounds nuw i8, ptr %15, i64 64
  %17 = sext i32 %spec.store.select to i64
  %18 = getelementptr inbounds [3 x ptr], ptr %16, i64 0, i64 %17
  %19 = load ptr, ptr %18, align 8, !tbaa !20
  %20 = icmp eq ptr %19, null
  br i1 %20, label %21, label %27

21:                                               ; preds = %gv_alloc.exit
  %22 = load ptr, ptr @Dttree, align 8, !tbaa !32
  %23 = tail call ptr @agdtopen(ptr noundef nonnull @LookupByName, ptr noundef %22) #10
  %24 = load ptr, ptr %14, align 8, !tbaa !3
  %25 = getelementptr inbounds nuw i8, ptr %24, i64 64
  %26 = getelementptr inbounds [3 x ptr], ptr %25, i64 0, i64 %17
  store ptr %23, ptr %26, align 8, !tbaa !20
  br label %27

27:                                               ; preds = %21, %gv_alloc.exit
  %28 = phi ptr [ %24, %21 ], [ %15, %gv_alloc.exit ]
  %.019 = phi ptr [ %23, %21 ], [ %19, %gv_alloc.exit ]
  %29 = getelementptr inbounds nuw i8, ptr %28, i64 88
  %30 = getelementptr inbounds [3 x ptr], ptr %29, i64 0, i64 %17
  %31 = load ptr, ptr %30, align 8, !tbaa !20
  %32 = icmp eq ptr %31, null
  br i1 %32, label %33, label %39

33:                                               ; preds = %27
  %34 = load ptr, ptr @Dttree, align 8, !tbaa !32
  %35 = tail call ptr @agdtopen(ptr noundef nonnull @LookupById, ptr noundef %34) #10
  %36 = load ptr, ptr %14, align 8, !tbaa !3
  %37 = getelementptr inbounds nuw i8, ptr %36, i64 88
  %38 = getelementptr inbounds [3 x ptr], ptr %37, i64 0, i64 %17
  store ptr %35, ptr %38, align 8, !tbaa !20
  br label %39

39:                                               ; preds = %33, %27
  %.0 = phi ptr [ %35, %33 ], [ %31, %27 ]
  %40 = load ptr, ptr %.019, align 8, !tbaa !24
  %41 = tail call ptr %40(ptr noundef nonnull %.019, ptr noundef nonnull %5, i32 noundef 1) #10
  %42 = load ptr, ptr %.0, align 8, !tbaa !24
  %43 = tail call ptr %42(ptr noundef nonnull %.0, ptr noundef nonnull %5, i32 noundef 1) #10
  ret void
}